target datalayout = "e-m:e-p270:32:32-p271:32:32-p272:64:64-i64:64-i128:128-f80:128-n8:16:32:64-S128"
target triple = "x86_64-pc-linux-gnu"

@stderr = external global ptr, align 8
@.str.11 = private unnamed_addr constant [47 x i8] c"libunwind: _Unwind_GetIP(context=%p) => 0x%lx\0A\00", align 1

; Function Attrs: uwtable
define dso_local i64 @_Unwind_GetIP(ptr noundef %0) #0 {
  %2 = alloca ptr, align 8
  %3 = alloca ptr, align 8
  %4 = alloca i64, align 8
  store ptr %0, ptr %2, align 8, !tbaa !31
  call void @llvm.lifetime.start.p0(i64 8, ptr %3) #5
  %5 = load ptr, ptr %2, align 8, !tbaa !31
  store ptr %5, ptr %3, align 8, !tbaa !19
  call void @llvm.lifetime.start.p0(i64 8, ptr %4) #5
  %6 = load ptr, ptr %3, align 8, !tbaa !19
  %7 = call i32 @__unw_get_reg(ptr noundef %6, i32 noundef -1, ptr noundef %4)
  br label %8

8:                                                ; preds = %1
  %9 = call zeroext i1 @logAPIs()
  br i1 %9, label %10, label %20

10:                                               ; preds = %8
  br label %11

11:                                               ; preds = %10
  %12 = load ptr, ptr @stderr, align 8, !tbaa !9
  %13 = load ptr, ptr %2, align 8, !tbaa !31
  %14 = load i64, ptr %4, align 8, !tbaa !25
  %15 = call i32 (ptr, ptr, ...) @fprintf(ptr noundef %12, ptr noundef @.str.11, ptr noundef %13, i64 noundef %14) #5
  %16 = load ptr, ptr @stderr, align 8, !tbaa !9
  %17 = call i32 @fflush(ptr noundef %16)
  br label %18

18:                                               ; preds = %11
  br label %19

19:                                               ; preds = %18
  br label %20

20:                                               ; preds = %19, %8
  br label %21

21:                                               ; preds = %20
  br label %22

22:                                               ; preds = %21
  %23 = load i64, ptr %4, align 8, !tbaa !25
  call void @llvm.lifetime.end.p0(i64 8, ptr %4) #5
  call void @llvm.lifetime.end.p0(i64 8, ptr %3) #5
  ret i64 %23
}