; Function Attrs: uwtable
define dso_local i64 @_Unwind_GetIP(ptr noundef %0) local_unnamed_addr #0 {
  %2 = alloca i64, align 8
  call void @llvm.lifetime.start.p0(i64 8, ptr nonnull %2) #8
  %3 = call i32 @__unw_get_reg(ptr noundef %0, i32 noundef -1, ptr noundef nonnull %2)
  %4 = call zeroext i1 @logAPIs()
  br i1 %4, label %5, label %11

5:                                                ; preds = %1
  %6 = load ptr, ptr @stderr, align 8, !tbaa !4
  %7 = load i64, ptr %2, align 8, !tbaa !13
  %8 = call i32 (ptr, ptr, ...) @fprintf(ptr noundef %6, ptr noundef nonnull @.str.11, ptr noundef %0, i64 noundef %7) #7
  %9 = load ptr, ptr @stderr, align 8, !tbaa !4
  %10 = call i32 @fflush(ptr noundef %9)
  br label %11

11:                                               ; preds = %5, %1
  %12 = load i64, ptr %2, align 8, !tbaa !13
  call void @llvm.lifetime.end.p0(i64 8, ptr nonnull %2) #8
  ret i64 %12
}